target datalayout = "e-m:e-p270:32:32-p271:32:32-p272:64:64-i64:64-i128:128-f80:128-n8:16:32:64-S128"
target triple = "x86_64-pc-linux-gnu"

%struct.lean_object = type { i32, i32 }

@l___private_Lean_Meta_Tactic_Grind_Internalize_0__Lean_Meta_Grind_forbiddenSplitTypes___closed__2 = internal global ptr null, align 8

; Function Attrs: alwaysinline nounwind uwtable
define internal void @lean_dec_ref(ptr noundef %0) #1 {
  %2 = alloca ptr, align 8
  store ptr %0, ptr %2, align 8, !tbaa !8
  %3 = load ptr, ptr %2, align 8, !tbaa !8
  %4 = getelementptr inbounds nuw %struct.lean_object, ptr %3, i32 0, i32 0
  %5 = load i32, ptr %4, align 4, !tbaa !15
  %6 = icmp sgt i32 %5, 1
  %7 = zext i1 %6 to i32
  %8 = sext i32 %7 to i64
  %9 = call i64 @llvm.expect.i64(i64 %8, i64 1)
  %10 = icmp ne i64 %9, 0
  br i1 %10, label %11, label %16

11:                                               ; preds = %1
  %12 = load ptr, ptr %2, align 8, !tbaa !8
  %13 = getelementptr inbounds nuw %struct.lean_object, ptr %12, i32 0, i32 0
  %14 = load i32, ptr %13, align 4, !tbaa !15
  %15 = add i32 %14, -1
  store i32 %15, ptr %13, align 4, !tbaa !15
  br label %24

16:                                               ; preds = %1
  %17 = load ptr, ptr %2, align 8, !tbaa !8
  %18 = getelementptr inbounds nuw %struct.lean_object, ptr %17, i32 0, i32 0
  %19 = load i32, ptr %18, align 4, !tbaa !15
  %20 = icmp ne i32 %19, 0
  br i1 %20, label %21, label %23

21:                                               ; preds = %16
  %22 = load ptr, ptr %2, align 8, !tbaa !8
  call void @lean_dec_ref_cold(ptr noundef %22)
  br label %23

23:                                               ; preds = %21, %16
  br label %24

24:                                               ; preds = %23, %11
  ret void
}

; Function Attrs: alwaysinline nounwind uwtable
define internal zeroext i1 @lean_is_scalar(ptr noundef %0) #1 {
  %2 = alloca ptr, align 8
  store ptr %0, ptr %2, align 8, !tbaa !8
  %3 = load ptr, ptr %2, align 8, !tbaa !8
  %4 = ptrtoint ptr %3 to i64
  %5 = and i64 %4, 1
  %6 = icmp eq i64 %5, 1
  ret i1 %6
}

; Function Attrs: inlinehint nounwind uwtable
define internal ptr @lean_box(i64 noundef %0) #0 {
  %2 = alloca i64, align 8
  store i64 %0, ptr %2, align 8, !tbaa !4
  %3 = load i64, ptr %2, align 8, !tbaa !4
  %4 = shl i64 %3, 1
  %5 = or i64 %4, 1
  %6 = inttoptr i64 %5 to ptr
  ret ptr %6
}

; Function Attrs: alwaysinline nounwind uwtable
define internal void @lean_dec(ptr noundef %0) #1 {
  %2 = alloca ptr, align 8
  store ptr %0, ptr %2, align 8, !tbaa !8
  %3 = load ptr, ptr %2, align 8, !tbaa !8
  %4 = call zeroext i1 @lean_is_scalar(ptr noundef %3)
  br i1 %4, label %7, label %5

5:                                                ; preds = %1
  %6 = load ptr, ptr %2, align 8, !tbaa !8
  call void @lean_dec_ref(ptr noundef %6)
  br label %7

7:                                                ; preds = %5, %1
  ret void
}

; Function Attrs: nounwind uwtable
define zeroext i8 @l_Lean_Meta_Grind_isMorallyIff(ptr noundef %0) #2 {
  %2 = alloca i8, align 1
  %3 = alloca ptr, align 8
  %4 = alloca ptr, align 8
  %5 = alloca i8, align 1
  %6 = alloca i8, align 1
  %7 = alloca i32, align 4
  %8 = alloca ptr, align 8
  %9 = alloca i8, align 1
  %10 = alloca i8, align 1
  %11 = alloca ptr, align 8
  %12 = alloca i8, align 1
  %13 = alloca i8, align 1
  %14 = alloca ptr, align 8
  %15 = alloca ptr, align 8
  %16 = alloca ptr, align 8
  %17 = alloca i8, align 1
  %18 = alloca i8, align 1
  %19 = alloca i8, align 1
  store ptr %0, ptr %3, align 8, !tbaa !8
  br label %20

20:                                               ; preds = %1
  call void @llvm.lifetime.start.p0(i64 8, ptr %4) #7
  call void @llvm.lifetime.start.p0(i64 1, ptr %5) #7
  %21 = load ptr, ptr %3, align 8, !tbaa !8
  %22 = call ptr @l_Lean_Expr_cleanupAnnotations(ptr noundef %21)
  store ptr %22, ptr %4, align 8, !tbaa !8
  %23 = load ptr, ptr %4, align 8, !tbaa !8
  %24 = call zeroext i8 @l_Lean_Expr_isApp(ptr noundef %23)
  store i8 %24, ptr %5, align 1, !tbaa !12
  %25 = load i8, ptr %5, align 1, !tbaa !12
  %26 = zext i8 %25 to i32
  %27 = icmp eq i32 %26, 0
  br i1 %27, label %28, label %31

28:                                               ; preds = %20
  call void @llvm.lifetime.start.p0(i64 1, ptr %6) #7
  %29 = load ptr, ptr %4, align 8, !tbaa !8
  call void @lean_dec(ptr noundef %29)
  store i8 0, ptr %6, align 1, !tbaa !12
  %30 = load i8, ptr %6, align 1, !tbaa !12
  store i8 %30, ptr %2, align 1
  store i32 1, ptr %7, align 4
  call void @llvm.lifetime.end.p0(i64 1, ptr %6) #7
  br label %81

31:                                               ; preds = %20
  call void @llvm.lifetime.start.p0(i64 8, ptr %8) #7
  call void @llvm.lifetime.start.p0(i64 1, ptr %9) #7
  %32 = load ptr, ptr %4, align 8, !tbaa !8
  %33 = call ptr @lean_box(i64 noundef 0)
  %34 = call ptr @l_Lean_Expr_appFnCleanup(ptr noundef %32, ptr noundef %33)
  store ptr %34, ptr %8, align 8, !tbaa !8
  %35 = load ptr, ptr %8, align 8, !tbaa !8
  %36 = call zeroext i8 @l_Lean_Expr_isApp(ptr noundef %35)
  store i8 %36, ptr %9, align 1, !tbaa !12
  %37 = load i8, ptr %9, align 1, !tbaa !12
  %38 = zext i8 %37 to i32
  %39 = icmp eq i32 %38, 0
  br i1 %39, label %40, label %43

40:                                               ; preds = %31
  call void @llvm.lifetime.start.p0(i64 1, ptr %10) #7
  %41 = load ptr, ptr %8, align 8, !tbaa !8
  call void @lean_dec(ptr noundef %41)
  store i8 0, ptr %10, align 1, !tbaa !12
  %42 = load i8, ptr %10, align 1, !tbaa !12
  store i8 %42, ptr %2, align 1
  store i32 1, ptr %7, align 4
  call void @llvm.lifetime.end.p0(i64 1, ptr %10) #7
  br label %80

43:                                               ; preds = %31
  call void @llvm.lifetime.start.p0(i64 8, ptr %11) #7
  call void @llvm.lifetime.start.p0(i64 1, ptr %12) #7
  %44 = load ptr, ptr %8, align 8, !tbaa !8
  %45 = call ptr @lean_box(i64 noundef 0)
  %46 = call ptr @l_Lean_Expr_appFnCleanup(ptr noundef %44, ptr noundef %45)
  store ptr %46, ptr %11, align 8, !tbaa !8
  %47 = load ptr, ptr %11, align 8, !tbaa !8
  %48 = call zeroext i8 @l_Lean_Expr_isApp(ptr noundef %47)
  store i8 %48, ptr %12, align 1, !tbaa !12
  %49 = load i8, ptr %12, align 1, !tbaa !12
  %50 = zext i8 %49 to i32
  %51 = icmp eq i32 %50, 0
  br i1 %51, label %52, label %55

52:                                               ; preds = %43
  call void @llvm.lifetime.start.p0(i64 1, ptr %13) #7
  %53 = load ptr, ptr %11, align 8, !tbaa !8
  call void @lean_dec(ptr noundef %53)
  store i8 0, ptr %13, align 1, !tbaa !12
  %54 = load i8, ptr %13, align 1, !tbaa !12
  store i8 %54, ptr %2, align 1
  store i32 1, ptr %7, align 4
  call void @llvm.lifetime.end.p0(i64 1, ptr %13) #7
  br label %79

55:                                               ; preds = %43
  call void @llvm.lifetime.start.p0(i64 8, ptr %14) #7
  call void @llvm.lifetime.start.p0(i64 8, ptr %15) #7
  call void @llvm.lifetime.start.p0(i64 8, ptr %16) #7
  call void @llvm.lifetime.start.p0(i64 1, ptr %17) #7
  %56 = load ptr, ptr %11, align 8, !tbaa !8
  %57 = call ptr @lean_box(i64 noundef 0)
  %58 = call ptr @l_Lean_Expr_appArg(ptr noundef %56, ptr noundef %57)
  store ptr %58, ptr %14, align 8, !tbaa !8
  %59 = load ptr, ptr %11, align 8, !tbaa !8
  %60 = call ptr @lean_box(i64 noundef 0)
  %61 = call ptr @l_Lean_Expr_appFnCleanup(ptr noundef %59, ptr noundef %60)
  store ptr %61, ptr %15, align 8, !tbaa !8
  %62 = load ptr, ptr @l___private_Lean_Meta_Tactic_Grind_Internalize_0__Lean_Meta_Grind_forbiddenSplitTypes___closed__2, align 8, !tbaa !8
  store ptr %62, ptr %16, align 8, !tbaa !8
  %63 = load ptr, ptr %15, align 8, !tbaa !8
  %64 = load ptr, ptr %16, align 8, !tbaa !8
  %65 = call zeroext i8 @l_Lean_Expr_isConstOf(ptr noundef %63, ptr noundef %64)
  store i8 %65, ptr %17, align 1, !tbaa !12
  %66 = load ptr, ptr %15, align 8, !tbaa !8
  call void @lean_dec(ptr noundef %66)
  %67 = load i8, ptr %17, align 1, !tbaa !12
  %68 = zext i8 %67 to i32
  %69 = icmp eq i32 %68, 0
  br i1 %69, label %70, label %73

70:                                               ; preds = %55
  call void @llvm.lifetime.start.p0(i64 1, ptr %18) #7
  %71 = load ptr, ptr %14, align 8, !tbaa !8
  call void @lean_dec(ptr noundef %71)
  store i8 0, ptr %18, align 1, !tbaa !12
  %72 = load i8, ptr %18, align 1, !tbaa !12
  store i8 %72, ptr %2, align 1
  store i32 1, ptr %7, align 4
  call void @llvm.lifetime.end.p0(i64 1, ptr %18) #7
  br label %78

73:                                               ; preds = %55
  call void @llvm.lifetime.start.p0(i64 1, ptr %19) #7
  %74 = load ptr, ptr %14, align 8, !tbaa !8
  %75 = call zeroext i8 @l_Lean_Expr_isProp(ptr noundef %74)
  store i8 %75, ptr %19, align 1, !tbaa !12
  %76 = load ptr, ptr %14, align 8, !tbaa !8
  call void @lean_dec(ptr noundef %76)
  %77 = load i8, ptr %19, align 1, !tbaa !12
  store i8 %77, ptr %2, align 1
  store i32 1, ptr %7, align 4
  call void @llvm.lifetime.end.p0(i64 1, ptr %19) #7
  br label %78

78:                                               ; preds = %73, %70
  call void @llvm.lifetime.end.p0(i64 1, ptr %17) #7
  call void @llvm.lifetime.end.p0(i64 8, ptr %16) #7
  call void @llvm.lifetime.end.p0(i64 8, ptr %15) #7
  call void @llvm.lifetime.end.p0(i64 8, ptr %14) #7
  br label %79

79:                                               ; preds = %78, %52
  call void @llvm.lifetime.end.p0(i64 1, ptr %12) #7
  call void @llvm.lifetime.end.p0(i64 8, ptr %11) #7
  br label %80

80:                                               ; preds = %79, %40
  call void @llvm.lifetime.end.p0(i64 1, ptr %9) #7
  call void @llvm.lifetime.end.p0(i64 8, ptr %8) #7
  br label %81

81:                                               ; preds = %80, %28
  call void @llvm.lifetime.end.p0(i64 1, ptr %5) #7
  call void @llvm.lifetime.end.p0(i64 8, ptr %4) #7
  %82 = load i8, ptr %2, align 1
  ret i8 %82
}