; Function Attrs: nounwind uwtable
define zeroext i8 @l_Lean_Meta_Grind_isMorallyIff(ptr noundef %0) local_unnamed_addr #1 {
  %2 = tail call ptr @l_Lean_Expr_cleanupAnnotations(ptr noundef %0) #4
  %3 = tail call zeroext i8 @l_Lean_Expr_isApp(ptr noundef %2) #4
  %4 = icmp eq i8 %3, 0
  br i1 %4, label %5, label %15

5:                                                ; preds = %1
  %6 = ptrtoint ptr %2 to i64
  %7 = and i64 %6, 1
  %.not45 = icmp eq i64 %7, 0
  br i1 %.not45, label %8, label %lean_dec.exit30

8:                                                ; preds = %5
  %9 = load i32, ptr %2, align 4, !tbaa !4
  %10 = icmp sgt i32 %9, 1
  br i1 %10, label %11, label %13, !prof !11

11:                                               ; preds = %8
  %12 = add nsw i32 %9, -1
  store i32 %12, ptr %2, align 4, !tbaa !4
  br label %lean_dec.exit30

13:                                               ; preds = %8
  %.not.i = icmp eq i32 %9, 0
  br i1 %.not.i, label %lean_dec.exit30, label %14

14:                                               ; preds = %13
  tail call void @lean_dec_ref_cold(ptr noundef nonnull %2) #4
  br label %lean_dec.exit30

15:                                               ; preds = %1
  %16 = tail call ptr @l_Lean_Expr_appFnCleanup(ptr noundef %2, ptr noundef nonnull inttoptr (i64 1 to ptr)) #4
  %17 = tail call zeroext i8 @l_Lean_Expr_isApp(ptr noundef %16) #4
  %18 = icmp eq i8 %17, 0
  br i1 %18, label %19, label %29

19:                                               ; preds = %15
  %20 = ptrtoint ptr %16 to i64
  %21 = and i64 %20, 1
  %.not44 = icmp eq i64 %21, 0
  br i1 %.not44, label %22, label %lean_dec.exit30

22:                                               ; preds = %19
  %23 = load i32, ptr %16, align 4, !tbaa !4
  %24 = icmp sgt i32 %23, 1
  br i1 %24, label %25, label %27, !prof !11

25:                                               ; preds = %22
  %26 = add nsw i32 %23, -1
  store i32 %26, ptr %16, align 4, !tbaa !4
  br label %lean_dec.exit30

27:                                               ; preds = %22
  %.not.i31 = icmp eq i32 %23, 0
  br i1 %.not.i31, label %lean_dec.exit30, label %28

28:                                               ; preds = %27
  tail call void @lean_dec_ref_cold(ptr noundef nonnull %16) #4
  br label %lean_dec.exit30

29:                                               ; preds = %15
  %30 = tail call ptr @l_Lean_Expr_appFnCleanup(ptr noundef %16, ptr noundef nonnull inttoptr (i64 1 to ptr)) #4
  %31 = tail call zeroext i8 @l_Lean_Expr_isApp(ptr noundef %30) #4
  %32 = icmp eq i8 %31, 0
  br i1 %32, label %33, label %43

33:                                               ; preds = %29
  %34 = ptrtoint ptr %30 to i64
  %35 = and i64 %34, 1
  %.not43 = icmp eq i64 %35, 0
  br i1 %.not43, label %36, label %lean_dec.exit30

36:                                               ; preds = %33
  %37 = load i32, ptr %30, align 4, !tbaa !4
  %38 = icmp sgt i32 %37, 1
  br i1 %38, label %39, label %41, !prof !11

39:                                               ; preds = %36
  %40 = add nsw i32 %37, -1
  store i32 %40, ptr %30, align 4, !tbaa !4
  br label %lean_dec.exit30

41:                                               ; preds = %36
  %.not.i33 = icmp eq i32 %37, 0
  br i1 %.not.i33, label %lean_dec.exit30, label %42

42:                                               ; preds = %41
  tail call void @lean_dec_ref_cold(ptr noundef nonnull %30) #4
  br label %lean_dec.exit30

43:                                               ; preds = %29
  %44 = tail call ptr @l_Lean_Expr_appArg(ptr noundef %30, ptr noundef nonnull inttoptr (i64 1 to ptr)) #4
  %45 = tail call ptr @l_Lean_Expr_appFnCleanup(ptr noundef %30, ptr noundef nonnull inttoptr (i64 1 to ptr)) #4
  %46 = load ptr, ptr @l___private_Lean_Meta_Tactic_Grind_Internalize_0__Lean_Meta_Grind_forbiddenSplitTypes___closed__2, align 8, !tbaa !9
  %47 = tail call zeroext i8 @l_Lean_Expr_isConstOf(ptr noundef %45, ptr noundef %46) #4
  %48 = ptrtoint ptr %45 to i64
  %49 = and i64 %48, 1
  %.not = icmp eq i64 %49, 0
  br i1 %.not, label %50, label %lean_dec.exit27

50:                                               ; preds = %43
  %51 = load i32, ptr %45, align 4, !tbaa !4
  %52 = icmp sgt i32 %51, 1
  br i1 %52, label %53, label %55, !prof !11

53:                                               ; preds = %50
  %54 = add nsw i32 %51, -1
  store i32 %54, ptr %45, align 4, !tbaa !4
  br label %lean_dec.exit27

55:                                               ; preds = %50
  %.not.i35 = icmp eq i32 %51, 0
  br i1 %.not.i35, label %lean_dec.exit27, label %56

56:                                               ; preds = %55
  tail call void @lean_dec_ref_cold(ptr noundef nonnull %45) #4
  br label %lean_dec.exit27

lean_dec.exit27:                                  ; preds = %56, %55, %53, %43
  %57 = icmp eq i8 %47, 0
  br i1 %57, label %58, label %68

58:                                               ; preds = %lean_dec.exit27
  %59 = ptrtoint ptr %44 to i64
  %60 = and i64 %59, 1
  %.not42 = icmp eq i64 %60, 0
  br i1 %.not42, label %61, label %lean_dec.exit30

61:                                               ; preds = %58
  %62 = load i32, ptr %44, align 4, !tbaa !4
  %63 = icmp sgt i32 %62, 1
  br i1 %63, label %64, label %66, !prof !11

64:                                               ; preds = %61
  %65 = add nsw i32 %62, -1
  store i32 %65, ptr %44, align 4, !tbaa !4
  br label %lean_dec.exit30

66:                                               ; preds = %61
  %.not.i37 = icmp eq i32 %62, 0
  br i1 %.not.i37, label %lean_dec.exit30, label %67

67:                                               ; preds = %66
  tail call void @lean_dec_ref_cold(ptr noundef nonnull %44) #4
  br label %lean_dec.exit30

68:                                               ; preds = %lean_dec.exit27
  %69 = tail call zeroext i8 @l_Lean_Expr_isProp(ptr noundef %44) #4
  %70 = ptrtoint ptr %44 to i64
  %71 = and i64 %70, 1
  %.not41 = icmp eq i64 %71, 0
  br i1 %.not41, label %72, label %lean_dec.exit30

72:                                               ; preds = %68
  %73 = load i32, ptr %44, align 4, !tbaa !4
  %74 = icmp sgt i32 %73, 1
  br i1 %74, label %75, label %77, !prof !11

75:                                               ; preds = %72
  %76 = add nsw i32 %73, -1
  store i32 %76, ptr %44, align 4, !tbaa !4
  br label %lean_dec.exit30

77:                                               ; preds = %72
  %.not.i39 = icmp eq i32 %73, 0
  br i1 %.not.i39, label %lean_dec.exit30, label %78

78:                                               ; preds = %77
  tail call void @lean_dec_ref_cold(ptr noundef nonnull %44) #4
  br label %lean_dec.exit30

lean_dec.exit30:                                  ; preds = %68, %75, %77, %78, %58, %64, %66, %67, %33, %39, %41, %42, %19, %25, %27, %28, %5, %11, %13, %14
  %.0 = phi i8 [ 0, %14 ], [ 0, %13 ], [ 0, %11 ], [ 0, %5 ], [ 0, %28 ], [ 0, %27 ], [ 0, %25 ], [ 0, %19 ], [ 0, %42 ], [ 0, %41 ], [ 0, %39 ], [ 0, %33 ], [ 0, %67 ], [ 0, %66 ], [ 0, %64 ], [ 0, %58 ], [ %69, %78 ], [ %69, %77 ], [ %69, %75 ], [ %69, %68 ]
  ret i8 %.0
}